; Function Attrs: mustprogress uwtable
define void @_ZN3zmq15tcp_connecter_tC2EPNS_11io_thread_tEPNS_14session_base_tERKNS_9options_tEPNS_9address_tEb(ptr noundef nonnull align 8 dereferenceable(1552) %0, ptr noundef %1, ptr noundef %2, ptr noundef nonnull align 8 dereferenceable(1336) %3, ptr noundef %4, i1 noundef zeroext %5) unnamed_addr #0 align 2 personality ptr @__gxx_personality_v0 {
  tail call void @_ZN3zmq23stream_connecter_base_tC2EPNS_11io_thread_tEPNS_14session_base_tERKNS_9options_tEPNS_9address_tEb(ptr noundef nonnull align 8 dereferenceable(1544) %0, ptr noundef %1, ptr noundef %2, ptr noundef nonnull align 8 dereferenceable(1336) %3, ptr noundef %4, i1 noundef zeroext %5)
  store ptr getelementptr inbounds nuw inrange(-16, 232) (i8, ptr @_ZTVN3zmq15tcp_connecter_tE, i64 16), ptr %0, align 8, !tbaa !3
  %7 = getelementptr inbounds nuw i8, ptr %0, i64 1448
  store ptr getelementptr inbounds nuw inrange(-16, 40) (i8, ptr @_ZTVN3zmq15tcp_connecter_tE, i64 264), ptr %7, align 8, !tbaa !3
  %8 = getelementptr inbounds nuw i8, ptr %0, i64 1544
  store i8 0, ptr %8, align 8, !tbaa !6
  %9 = getelementptr inbounds nuw i8, ptr %0, i64 1464
  %10 = load ptr, ptr %9, align 8, !tbaa !68
  %11 = tail call noundef i32 @_ZNKSt7__cxx1112basic_stringIcSt11char_traitsIcESaIcEE7compareEPKc(ptr noundef nonnull align 8 dereferenceable(32) %10, ptr noundef nonnull @_ZN3zmq13protocol_nameL3tcpE) #16
  %12 = icmp eq i32 %11, 0
  br i1 %12, label %20, label %13, !prof !69

13:                                               ; preds = %6
  %14 = load ptr, ptr @stderr, align 8, !tbaa !70
  %15 = tail call i32 (ptr, ptr, ...) @fprintf(ptr noundef %14, ptr noundef nonnull @.str, ptr noundef nonnull @.str.1, ptr noundef nonnull @.str.2, i32 noundef 47) #17
  %16 = load ptr, ptr @stderr, align 8, !tbaa !70
  %17 = tail call i32 @fflush(ptr noundef %16)
  invoke void @_ZN3zmq9zmq_abortEPKc(ptr noundef nonnull @.str.1)
          to label %20 unwind label %18

18:                                               ; preds = %13
  %19 = landingpad { ptr, i32 }
          cleanup
  tail call void @_ZN3zmq23stream_connecter_base_tD2Ev(ptr noundef nonnull align 8 dereferenceable(1544) %0) #16
  resume { ptr, i32 } %19

20:                                               ; preds = %13, %6
  ret void
}